target datalayout = "e-m:e-p270:32:32-p271:32:32-p272:64:64-i64:64-i128:128-f80:128-n8:16:32:64-S128"
target triple = "x86_64-pc-linux-gnu"

%struct._generic_N_Vector = type { ptr, ptr, ptr }
%struct._N_VectorContent_Serial = type { i64, i32, ptr }

@stdout = external global ptr, align 8
@stderr = external global ptr, align 8
@.str.21 = private unnamed_addr constant [47 x i8] c"\0ASUNDIALS_ERROR: check_ans failed - ewt <= 0\0A\0A\00", align 1
@.str.22 = private unnamed_addr constant [40 x i8] c"\0ASUNDIALS_WARNING: check_ans error=%g\0A\0A\00", align 1

; Function Attrs: nounwind uwtable
define internal i32 @check_ans(ptr noundef %0, double noundef %1, double noundef %2, ptr noundef %3) #0 {
  %5 = alloca i32, align 4
  %6 = alloca ptr, align 8
  %7 = alloca double, align 8
  %8 = alloca double, align 8
  %9 = alloca ptr, align 8
  %10 = alloca i32, align 4
  %11 = alloca ptr, align 8
  %12 = alloca ptr, align 8
  %13 = alloca double, align 8
  %14 = alloca double, align 8
  %15 = alloca i32, align 4
  store ptr %0, ptr %6, align 8, !tbaa !4
  store double %1, ptr %7, align 8, !tbaa !25
  store double %2, ptr %8, align 8, !tbaa !25
  store ptr %3, ptr %9, align 8, !tbaa !4
  call void @llvm.lifetime.start.p0(i64 4, ptr %10) #5
  store i32 0, ptr %10, align 4, !tbaa !14
  call void @llvm.lifetime.start.p0(i64 8, ptr %11) #5
  call void @llvm.lifetime.start.p0(i64 8, ptr %12) #5
  call void @llvm.lifetime.start.p0(i64 8, ptr %13) #5
  call void @llvm.lifetime.start.p0(i64 8, ptr %14) #5
  store double 1.000000e+00, ptr %14, align 8, !tbaa !25
  %16 = load ptr, ptr %6, align 8, !tbaa !4
  %17 = call ptr @N_VClone(ptr noundef %16)
  store ptr %17, ptr %11, align 8, !tbaa !4
  %18 = load ptr, ptr %6, align 8, !tbaa !4
  %19 = call ptr @N_VClone(ptr noundef %18)
  store ptr %19, ptr %12, align 8, !tbaa !4
  %20 = load ptr, ptr %11, align 8, !tbaa !4
  %21 = getelementptr inbounds nuw %struct._generic_N_Vector, ptr %20, i32 0, i32 0
  %22 = load ptr, ptr %21, align 8, !tbaa !18
  %23 = getelementptr inbounds nuw %struct._N_VectorContent_Serial, ptr %22, i32 0, i32 2
  %24 = load ptr, ptr %23, align 8, !tbaa !21
  %25 = getelementptr inbounds double, ptr %24, i64 0
  store double 0x3E6BF64D19675E2C, ptr %25, align 8, !tbaa !25
  %26 = load ptr, ptr %11, align 8, !tbaa !4
  %27 = getelementptr inbounds nuw %struct._generic_N_Vector, ptr %26, i32 0, i32 0
  %28 = load ptr, ptr %27, align 8, !tbaa !18
  %29 = getelementptr inbounds nuw %struct._N_VectorContent_Serial, ptr %28, i32 0, i32 2
  %30 = load ptr, ptr %29, align 8, !tbaa !21
  %31 = getelementptr inbounds double, ptr %30, i64 1
  store double 0x3D4D5205EFF51F97, ptr %31, align 8, !tbaa !25
  %32 = load ptr, ptr %11, align 8, !tbaa !4
  %33 = getelementptr inbounds nuw %struct._generic_N_Vector, ptr %32, i32 0, i32 0
  %34 = load ptr, ptr %33, align 8, !tbaa !18
  %35 = getelementptr inbounds nuw %struct._N_VectorContent_Serial, ptr %34, i32 0, i32 2
  %36 = load ptr, ptr %35, align 8, !tbaa !21
  %37 = getelementptr inbounds double, ptr %36, i64 2
  store double 0x3FEFFFFFE409ABA4, ptr %37, align 8, !tbaa !25
  %38 = load ptr, ptr %11, align 8, !tbaa !4
  %39 = load ptr, ptr %12, align 8, !tbaa !4
  call void @N_VAbs(ptr noundef %38, ptr noundef %39)
  %40 = load double, ptr %8, align 8, !tbaa !25
  %41 = load ptr, ptr %12, align 8, !tbaa !4
  %42 = load ptr, ptr %9, align 8, !tbaa !4
  %43 = load ptr, ptr %12, align 8, !tbaa !4
  call void @N_VLinearSum(double noundef %40, ptr noundef %41, double noundef 1.000000e+01, ptr noundef %42, ptr noundef %43)
  %44 = load ptr, ptr %12, align 8, !tbaa !4
  %45 = call double @N_VMin(ptr noundef %44)
  %46 = fcmp ole double %45, 0.000000e+00
  br i1 %46, label %47, label %50

47:                                               ; preds = %4
  %48 = load ptr, ptr @stderr, align 8, !tbaa !27
  %49 = call i32 (ptr, ptr, ...) @fprintf(ptr noundef %48, ptr noundef @.str.21) #5
  store i32 -1, ptr %5, align 4
  store i32 1, ptr %15, align 4
  br label %76

50:                                               ; preds = %4
  %51 = load ptr, ptr %12, align 8, !tbaa !4
  %52 = load ptr, ptr %12, align 8, !tbaa !4
  call void @N_VInv(ptr noundef %51, ptr noundef %52)
  %53 = load double, ptr %14, align 8, !tbaa !25
  %54 = load ptr, ptr %6, align 8, !tbaa !4
  %55 = load double, ptr %14, align 8, !tbaa !25
  %56 = fneg double %55
  %57 = load ptr, ptr %11, align 8, !tbaa !4
  %58 = load ptr, ptr %11, align 8, !tbaa !4
  call void @N_VLinearSum(double noundef %53, ptr noundef %54, double noundef %56, ptr noundef %57, ptr noundef %58)
  %59 = load ptr, ptr %11, align 8, !tbaa !4
  %60 = load ptr, ptr %12, align 8, !tbaa !4
  %61 = call double @N_VWrmsNorm(ptr noundef %59, ptr noundef %60)
  store double %61, ptr %13, align 8, !tbaa !25
  %62 = load double, ptr %13, align 8, !tbaa !25
  %63 = load double, ptr %14, align 8, !tbaa !25
  %64 = fcmp olt double %62, %63
  %65 = select i1 %64, i32 0, i32 1
  store i32 %65, ptr %10, align 4, !tbaa !14
  %66 = load i32, ptr %10, align 4, !tbaa !14
  %67 = icmp ne i32 %66, 0
  br i1 %67, label %68, label %72

68:                                               ; preds = %50
  %69 = load ptr, ptr @stdout, align 8, !tbaa !27
  %70 = load double, ptr %13, align 8, !tbaa !25
  %71 = call i32 (ptr, ptr, ...) @fprintf(ptr noundef %69, ptr noundef @.str.22, double noundef %70) #5
  br label %72

72:                                               ; preds = %68, %50
  %73 = load ptr, ptr %11, align 8, !tbaa !4
  call void @N_VDestroy(ptr noundef %73)
  %74 = load ptr, ptr %12, align 8, !tbaa !4
  call void @N_VDestroy(ptr noundef %74)
  %75 = load i32, ptr %10, align 4, !tbaa !14
  store i32 %75, ptr %5, align 4
  store i32 1, ptr %15, align 4
  br label %76

76:                                               ; preds = %72, %47
  call void @llvm.lifetime.end.p0(i64 8, ptr %14) #5
  call void @llvm.lifetime.end.p0(i64 8, ptr %13) #5
  call void @llvm.lifetime.end.p0(i64 8, ptr %12) #5
  call void @llvm.lifetime.end.p0(i64 8, ptr %11) #5
  call void @llvm.lifetime.end.p0(i64 4, ptr %10) #5
  %77 = load i32, ptr %5, align 4
  ret i32 %77
}